
RFID Module.elf:     file format elf32-avr

Sections:
Idx Name          Size      VMA       LMA       File off  Algn
  0 .text         00000a1a  00000000  00000000  00000074  2**1
                  CONTENTS, ALLOC, LOAD, READONLY, CODE
  1 .data         0000008e  00800060  00000a1a  00000a8e  2**0
                  CONTENTS, ALLOC, LOAD, DATA
  2 .comment      00000030  00000000  00000000  00000b1c  2**0
                  CONTENTS, READONLY
  3 .note.gnu.avr.deviceinfo 0000003c  00000000  00000000  00000b4c  2**2
                  CONTENTS, READONLY
  4 .debug_aranges 000000d0  00000000  00000000  00000b88  2**0
                  CONTENTS, READONLY, DEBUGGING
  5 .debug_info   000018da  00000000  00000000  00000c58  2**0
                  CONTENTS, READONLY, DEBUGGING
  6 .debug_abbrev 0000073e  00000000  00000000  00002532  2**0
                  CONTENTS, READONLY, DEBUGGING
  7 .debug_line   00000bbf  00000000  00000000  00002c70  2**0
                  CONTENTS, READONLY, DEBUGGING
  8 .debug_frame  000001f8  00000000  00000000  00003830  2**2
                  CONTENTS, READONLY, DEBUGGING
  9 .debug_str    000004b0  00000000  00000000  00003a28  2**0
                  CONTENTS, READONLY, DEBUGGING
 10 .debug_loc    000013f2  00000000  00000000  00003ed8  2**0
                  CONTENTS, READONLY, DEBUGGING
 11 .debug_ranges 000000d8  00000000  00000000  000052ca  2**0
                  CONTENTS, READONLY, DEBUGGING

Disassembly of section .text:

00000000 <__vectors>:
   0:	0c 94 2a 00 	jmp	0x54	; 0x54 <__ctors_end>
   4:	0c 94 3f 00 	jmp	0x7e	; 0x7e <__bad_interrupt>
   8:	0c 94 3f 00 	jmp	0x7e	; 0x7e <__bad_interrupt>
   c:	0c 94 3f 00 	jmp	0x7e	; 0x7e <__bad_interrupt>
  10:	0c 94 3f 00 	jmp	0x7e	; 0x7e <__bad_interrupt>
  14:	0c 94 3f 00 	jmp	0x7e	; 0x7e <__bad_interrupt>
  18:	0c 94 3f 00 	jmp	0x7e	; 0x7e <__bad_interrupt>
  1c:	0c 94 3f 00 	jmp	0x7e	; 0x7e <__bad_interrupt>
  20:	0c 94 3f 00 	jmp	0x7e	; 0x7e <__bad_interrupt>
  24:	0c 94 3f 00 	jmp	0x7e	; 0x7e <__bad_interrupt>
  28:	0c 94 3f 00 	jmp	0x7e	; 0x7e <__bad_interrupt>
  2c:	0c 94 3f 00 	jmp	0x7e	; 0x7e <__bad_interrupt>
  30:	0c 94 3f 00 	jmp	0x7e	; 0x7e <__bad_interrupt>
  34:	0c 94 3f 00 	jmp	0x7e	; 0x7e <__bad_interrupt>
  38:	0c 94 3f 00 	jmp	0x7e	; 0x7e <__bad_interrupt>
  3c:	0c 94 3f 00 	jmp	0x7e	; 0x7e <__bad_interrupt>
  40:	0c 94 3f 00 	jmp	0x7e	; 0x7e <__bad_interrupt>
  44:	0c 94 3f 00 	jmp	0x7e	; 0x7e <__bad_interrupt>
  48:	0c 94 3f 00 	jmp	0x7e	; 0x7e <__bad_interrupt>
  4c:	0c 94 3f 00 	jmp	0x7e	; 0x7e <__bad_interrupt>
  50:	0c 94 3f 00 	jmp	0x7e	; 0x7e <__bad_interrupt>

00000054 <__ctors_end>:
  54:	11 24       	eor	r1, r1
  56:	1f be       	out	0x3f, r1	; 63
  58:	cf e5       	ldi	r28, 0x5F	; 95
  5a:	d8 e0       	ldi	r29, 0x08	; 8
  5c:	de bf       	out	0x3e, r29	; 62
  5e:	cd bf       	out	0x3d, r28	; 61

00000060 <__do_copy_data>:
  60:	10 e0       	ldi	r17, 0x00	; 0
  62:	a0 e6       	ldi	r26, 0x60	; 96
  64:	b0 e0       	ldi	r27, 0x00	; 0
  66:	ea e1       	ldi	r30, 0x1A	; 26
  68:	fa e0       	ldi	r31, 0x0A	; 10
  6a:	02 c0       	rjmp	.+4      	; 0x70 <__do_copy_data+0x10>
  6c:	05 90       	lpm	r0, Z+
  6e:	0d 92       	st	X+, r0
  70:	ae 3e       	cpi	r26, 0xEE	; 238
  72:	b1 07       	cpc	r27, r17
  74:	d9 f7       	brne	.-10     	; 0x6c <__do_copy_data+0xc>
  76:	0e 94 30 03 	call	0x660	; 0x660 <main>
  7a:	0c 94 0b 05 	jmp	0xa16	; 0xa16 <_exit>

0000007e <__bad_interrupt>:
  7e:	0c 94 00 00 	jmp	0	; 0x0 <__vectors>

00000082 <pinChange>:
}

void Lcd4_Shift_Left()
{
	Lcd4_Cmd(0x01);
	Lcd4_Cmd(0x08);
  82:	67 2b       	or	r22, r23
  84:	09 f0       	breq	.+2      	; 0x88 <pinChange+0x6>
  86:	df c0       	rjmp	.+446    	; 0x246 <pinChange+0x1c4>
  88:	00 97       	sbiw	r24, 0x00	; 0
  8a:	21 f4       	brne	.+8      	; 0x94 <pinChange+0x12>
  8c:	8b b3       	in	r24, 0x1b	; 27
  8e:	8e 7f       	andi	r24, 0xFE	; 254
  90:	8b bb       	out	0x1b, r24	; 27
  92:	08 95       	ret
  94:	81 30       	cpi	r24, 0x01	; 1
  96:	91 05       	cpc	r25, r1
  98:	21 f4       	brne	.+8      	; 0xa2 <pinChange+0x20>
  9a:	8b b3       	in	r24, 0x1b	; 27
  9c:	8d 7f       	andi	r24, 0xFD	; 253
  9e:	8b bb       	out	0x1b, r24	; 27
  a0:	08 95       	ret
  a2:	82 30       	cpi	r24, 0x02	; 2
  a4:	91 05       	cpc	r25, r1
  a6:	21 f4       	brne	.+8      	; 0xb0 <pinChange+0x2e>
  a8:	8b b3       	in	r24, 0x1b	; 27
  aa:	8b 7f       	andi	r24, 0xFB	; 251
  ac:	8b bb       	out	0x1b, r24	; 27
  ae:	08 95       	ret
  b0:	83 30       	cpi	r24, 0x03	; 3
  b2:	91 05       	cpc	r25, r1
  b4:	21 f4       	brne	.+8      	; 0xbe <pinChange+0x3c>
  b6:	8b b3       	in	r24, 0x1b	; 27
  b8:	87 7f       	andi	r24, 0xF7	; 247
  ba:	8b bb       	out	0x1b, r24	; 27
  bc:	08 95       	ret
  be:	84 30       	cpi	r24, 0x04	; 4
  c0:	91 05       	cpc	r25, r1
  c2:	21 f4       	brne	.+8      	; 0xcc <pinChange+0x4a>
  c4:	8b b3       	in	r24, 0x1b	; 27
  c6:	8f 7e       	andi	r24, 0xEF	; 239
  c8:	8b bb       	out	0x1b, r24	; 27
  ca:	08 95       	ret
  cc:	85 30       	cpi	r24, 0x05	; 5
  ce:	91 05       	cpc	r25, r1
  d0:	21 f4       	brne	.+8      	; 0xda <pinChange+0x58>
  d2:	8b b3       	in	r24, 0x1b	; 27
  d4:	8f 7d       	andi	r24, 0xDF	; 223
  d6:	8b bb       	out	0x1b, r24	; 27
  d8:	08 95       	ret
  da:	86 30       	cpi	r24, 0x06	; 6
  dc:	91 05       	cpc	r25, r1
  de:	21 f4       	brne	.+8      	; 0xe8 <pinChange+0x66>
  e0:	8b b3       	in	r24, 0x1b	; 27
  e2:	8f 7b       	andi	r24, 0xBF	; 191
  e4:	8b bb       	out	0x1b, r24	; 27
  e6:	08 95       	ret
  e8:	87 30       	cpi	r24, 0x07	; 7
  ea:	91 05       	cpc	r25, r1
  ec:	21 f4       	brne	.+8      	; 0xf6 <pinChange+0x74>
  ee:	8b b3       	in	r24, 0x1b	; 27
  f0:	8f 77       	andi	r24, 0x7F	; 127
  f2:	8b bb       	out	0x1b, r24	; 27
  f4:	08 95       	ret
  f6:	8a 30       	cpi	r24, 0x0A	; 10
  f8:	91 05       	cpc	r25, r1
  fa:	21 f4       	brne	.+8      	; 0x104 <pinChange+0x82>
  fc:	88 b3       	in	r24, 0x18	; 24
  fe:	8e 7f       	andi	r24, 0xFE	; 254
 100:	88 bb       	out	0x18, r24	; 24
 102:	08 95       	ret
 104:	8b 30       	cpi	r24, 0x0B	; 11
 106:	91 05       	cpc	r25, r1
 108:	21 f4       	brne	.+8      	; 0x112 <pinChange+0x90>
 10a:	88 b3       	in	r24, 0x18	; 24
 10c:	8d 7f       	andi	r24, 0xFD	; 253
 10e:	88 bb       	out	0x18, r24	; 24
 110:	08 95       	ret
 112:	8c 30       	cpi	r24, 0x0C	; 12
 114:	91 05       	cpc	r25, r1
 116:	21 f4       	brne	.+8      	; 0x120 <pinChange+0x9e>
 118:	88 b3       	in	r24, 0x18	; 24
 11a:	8b 7f       	andi	r24, 0xFB	; 251
 11c:	88 bb       	out	0x18, r24	; 24
 11e:	08 95       	ret
 120:	8d 30       	cpi	r24, 0x0D	; 13
 122:	91 05       	cpc	r25, r1
 124:	21 f4       	brne	.+8      	; 0x12e <pinChange+0xac>
 126:	88 b3       	in	r24, 0x18	; 24
 128:	87 7f       	andi	r24, 0xF7	; 247
 12a:	88 bb       	out	0x18, r24	; 24
 12c:	08 95       	ret
 12e:	8e 30       	cpi	r24, 0x0E	; 14
 130:	91 05       	cpc	r25, r1
 132:	21 f4       	brne	.+8      	; 0x13c <pinChange+0xba>
 134:	88 b3       	in	r24, 0x18	; 24
 136:	8f 7e       	andi	r24, 0xEF	; 239
 138:	88 bb       	out	0x18, r24	; 24
 13a:	08 95       	ret
 13c:	8f 30       	cpi	r24, 0x0F	; 15
 13e:	91 05       	cpc	r25, r1
 140:	21 f4       	brne	.+8      	; 0x14a <pinChange+0xc8>
 142:	88 b3       	in	r24, 0x18	; 24
 144:	8f 7d       	andi	r24, 0xDF	; 223
 146:	88 bb       	out	0x18, r24	; 24
 148:	08 95       	ret
 14a:	80 31       	cpi	r24, 0x10	; 16
 14c:	91 05       	cpc	r25, r1
 14e:	21 f4       	brne	.+8      	; 0x158 <pinChange+0xd6>
 150:	88 b3       	in	r24, 0x18	; 24
 152:	8f 7b       	andi	r24, 0xBF	; 191
 154:	88 bb       	out	0x18, r24	; 24
 156:	08 95       	ret
 158:	81 31       	cpi	r24, 0x11	; 17
 15a:	91 05       	cpc	r25, r1
 15c:	21 f4       	brne	.+8      	; 0x166 <pinChange+0xe4>
 15e:	88 b3       	in	r24, 0x18	; 24
 160:	8f 77       	andi	r24, 0x7F	; 127
 162:	88 bb       	out	0x18, r24	; 24
 164:	08 95       	ret
 166:	84 31       	cpi	r24, 0x14	; 20
 168:	91 05       	cpc	r25, r1
 16a:	21 f4       	brne	.+8      	; 0x174 <pinChange+0xf2>
 16c:	85 b3       	in	r24, 0x15	; 21
 16e:	8e 7f       	andi	r24, 0xFE	; 254
 170:	85 bb       	out	0x15, r24	; 21
 172:	08 95       	ret
 174:	85 31       	cpi	r24, 0x15	; 21
 176:	91 05       	cpc	r25, r1
 178:	21 f4       	brne	.+8      	; 0x182 <pinChange+0x100>
 17a:	85 b3       	in	r24, 0x15	; 21
 17c:	8d 7f       	andi	r24, 0xFD	; 253
 17e:	85 bb       	out	0x15, r24	; 21
 180:	08 95       	ret
 182:	86 31       	cpi	r24, 0x16	; 22
 184:	91 05       	cpc	r25, r1
 186:	21 f4       	brne	.+8      	; 0x190 <pinChange+0x10e>
 188:	85 b3       	in	r24, 0x15	; 21
 18a:	8b 7f       	andi	r24, 0xFB	; 251
 18c:	85 bb       	out	0x15, r24	; 21
 18e:	08 95       	ret
 190:	87 31       	cpi	r24, 0x17	; 23
 192:	91 05       	cpc	r25, r1
 194:	21 f4       	brne	.+8      	; 0x19e <pinChange+0x11c>
 196:	85 b3       	in	r24, 0x15	; 21
 198:	87 7f       	andi	r24, 0xF7	; 247
 19a:	85 bb       	out	0x15, r24	; 21
 19c:	08 95       	ret
 19e:	88 31       	cpi	r24, 0x18	; 24
 1a0:	91 05       	cpc	r25, r1
 1a2:	21 f4       	brne	.+8      	; 0x1ac <pinChange+0x12a>
 1a4:	85 b3       	in	r24, 0x15	; 21
 1a6:	8f 7e       	andi	r24, 0xEF	; 239
 1a8:	85 bb       	out	0x15, r24	; 21
 1aa:	08 95       	ret
 1ac:	89 31       	cpi	r24, 0x19	; 25
 1ae:	91 05       	cpc	r25, r1
 1b0:	21 f4       	brne	.+8      	; 0x1ba <pinChange+0x138>
 1b2:	85 b3       	in	r24, 0x15	; 21
 1b4:	8f 7d       	andi	r24, 0xDF	; 223
 1b6:	85 bb       	out	0x15, r24	; 21
 1b8:	08 95       	ret
 1ba:	8a 31       	cpi	r24, 0x1A	; 26
 1bc:	91 05       	cpc	r25, r1
 1be:	21 f4       	brne	.+8      	; 0x1c8 <pinChange+0x146>
 1c0:	85 b3       	in	r24, 0x15	; 21
 1c2:	8f 7b       	andi	r24, 0xBF	; 191
 1c4:	85 bb       	out	0x15, r24	; 21
 1c6:	08 95       	ret
 1c8:	8b 31       	cpi	r24, 0x1B	; 27
 1ca:	91 05       	cpc	r25, r1
 1cc:	21 f4       	brne	.+8      	; 0x1d6 <pinChange+0x154>
 1ce:	85 b3       	in	r24, 0x15	; 21
 1d0:	8f 77       	andi	r24, 0x7F	; 127
 1d2:	85 bb       	out	0x15, r24	; 21
 1d4:	08 95       	ret
 1d6:	8e 31       	cpi	r24, 0x1E	; 30
 1d8:	91 05       	cpc	r25, r1
 1da:	21 f4       	brne	.+8      	; 0x1e4 <pinChange+0x162>
 1dc:	82 b3       	in	r24, 0x12	; 18
 1de:	8e 7f       	andi	r24, 0xFE	; 254
 1e0:	82 bb       	out	0x12, r24	; 18
 1e2:	08 95       	ret
 1e4:	8f 31       	cpi	r24, 0x1F	; 31
 1e6:	91 05       	cpc	r25, r1
 1e8:	21 f4       	brne	.+8      	; 0x1f2 <pinChange+0x170>
 1ea:	82 b3       	in	r24, 0x12	; 18
 1ec:	8d 7f       	andi	r24, 0xFD	; 253
 1ee:	82 bb       	out	0x12, r24	; 18
 1f0:	08 95       	ret
 1f2:	80 32       	cpi	r24, 0x20	; 32
 1f4:	91 05       	cpc	r25, r1
 1f6:	21 f4       	brne	.+8      	; 0x200 <pinChange+0x17e>
 1f8:	82 b3       	in	r24, 0x12	; 18
 1fa:	8b 7f       	andi	r24, 0xFB	; 251
 1fc:	82 bb       	out	0x12, r24	; 18
 1fe:	08 95       	ret
 200:	81 32       	cpi	r24, 0x21	; 33
 202:	91 05       	cpc	r25, r1
 204:	21 f4       	brne	.+8      	; 0x20e <pinChange+0x18c>
 206:	82 b3       	in	r24, 0x12	; 18
 208:	87 7f       	andi	r24, 0xF7	; 247
 20a:	82 bb       	out	0x12, r24	; 18
 20c:	08 95       	ret
 20e:	82 32       	cpi	r24, 0x22	; 34
 210:	91 05       	cpc	r25, r1
 212:	21 f4       	brne	.+8      	; 0x21c <pinChange+0x19a>
 214:	82 b3       	in	r24, 0x12	; 18
 216:	8f 7e       	andi	r24, 0xEF	; 239
 218:	82 bb       	out	0x12, r24	; 18
 21a:	08 95       	ret
 21c:	83 32       	cpi	r24, 0x23	; 35
 21e:	91 05       	cpc	r25, r1
 220:	21 f4       	brne	.+8      	; 0x22a <pinChange+0x1a8>
 222:	82 b3       	in	r24, 0x12	; 18
 224:	8f 7d       	andi	r24, 0xDF	; 223
 226:	82 bb       	out	0x12, r24	; 18
 228:	08 95       	ret
 22a:	84 32       	cpi	r24, 0x24	; 36
 22c:	91 05       	cpc	r25, r1
 22e:	21 f4       	brne	.+8      	; 0x238 <pinChange+0x1b6>
 230:	82 b3       	in	r24, 0x12	; 18
 232:	8f 7b       	andi	r24, 0xBF	; 191
 234:	82 bb       	out	0x12, r24	; 18
 236:	08 95       	ret
 238:	85 97       	sbiw	r24, 0x25	; 37
 23a:	09 f0       	breq	.+2      	; 0x23e <pinChange+0x1bc>
 23c:	e1 c0       	rjmp	.+450    	; 0x400 <__EEPROM_REGION_LENGTH__>
 23e:	82 b3       	in	r24, 0x12	; 18
 240:	8f 77       	andi	r24, 0x7F	; 127
 242:	82 bb       	out	0x12, r24	; 18
 244:	08 95       	ret
 246:	00 97       	sbiw	r24, 0x00	; 0
 248:	21 f4       	brne	.+8      	; 0x252 <pinChange+0x1d0>
 24a:	8b b3       	in	r24, 0x1b	; 27
 24c:	81 60       	ori	r24, 0x01	; 1
 24e:	8b bb       	out	0x1b, r24	; 27
 250:	08 95       	ret
 252:	81 30       	cpi	r24, 0x01	; 1
 254:	91 05       	cpc	r25, r1
 256:	21 f4       	brne	.+8      	; 0x260 <pinChange+0x1de>
 258:	8b b3       	in	r24, 0x1b	; 27
 25a:	82 60       	ori	r24, 0x02	; 2
 25c:	8b bb       	out	0x1b, r24	; 27
 25e:	08 95       	ret
 260:	82 30       	cpi	r24, 0x02	; 2
 262:	91 05       	cpc	r25, r1
 264:	21 f4       	brne	.+8      	; 0x26e <pinChange+0x1ec>
 266:	8b b3       	in	r24, 0x1b	; 27
 268:	84 60       	ori	r24, 0x04	; 4
 26a:	8b bb       	out	0x1b, r24	; 27
 26c:	08 95       	ret
 26e:	83 30       	cpi	r24, 0x03	; 3
 270:	91 05       	cpc	r25, r1
 272:	21 f4       	brne	.+8      	; 0x27c <pinChange+0x1fa>
 274:	8b b3       	in	r24, 0x1b	; 27
 276:	88 60       	ori	r24, 0x08	; 8
 278:	8b bb       	out	0x1b, r24	; 27
 27a:	08 95       	ret
 27c:	84 30       	cpi	r24, 0x04	; 4
 27e:	91 05       	cpc	r25, r1
 280:	21 f4       	brne	.+8      	; 0x28a <pinChange+0x208>
 282:	8b b3       	in	r24, 0x1b	; 27
 284:	80 61       	ori	r24, 0x10	; 16
 286:	8b bb       	out	0x1b, r24	; 27
 288:	08 95       	ret
 28a:	85 30       	cpi	r24, 0x05	; 5
 28c:	91 05       	cpc	r25, r1
 28e:	21 f4       	brne	.+8      	; 0x298 <pinChange+0x216>
 290:	8b b3       	in	r24, 0x1b	; 27
 292:	80 62       	ori	r24, 0x20	; 32
 294:	8b bb       	out	0x1b, r24	; 27
 296:	08 95       	ret
 298:	86 30       	cpi	r24, 0x06	; 6
 29a:	91 05       	cpc	r25, r1
 29c:	21 f4       	brne	.+8      	; 0x2a6 <pinChange+0x224>
 29e:	8b b3       	in	r24, 0x1b	; 27
 2a0:	80 64       	ori	r24, 0x40	; 64
 2a2:	8b bb       	out	0x1b, r24	; 27
 2a4:	08 95       	ret
 2a6:	87 30       	cpi	r24, 0x07	; 7
 2a8:	91 05       	cpc	r25, r1
 2aa:	21 f4       	brne	.+8      	; 0x2b4 <pinChange+0x232>
 2ac:	8b b3       	in	r24, 0x1b	; 27
 2ae:	80 68       	ori	r24, 0x80	; 128
 2b0:	8b bb       	out	0x1b, r24	; 27
 2b2:	08 95       	ret
 2b4:	8a 30       	cpi	r24, 0x0A	; 10
 2b6:	91 05       	cpc	r25, r1
 2b8:	21 f4       	brne	.+8      	; 0x2c2 <pinChange+0x240>
 2ba:	88 b3       	in	r24, 0x18	; 24
 2bc:	81 60       	ori	r24, 0x01	; 1
 2be:	88 bb       	out	0x18, r24	; 24
 2c0:	08 95       	ret
 2c2:	8b 30       	cpi	r24, 0x0B	; 11
 2c4:	91 05       	cpc	r25, r1
 2c6:	21 f4       	brne	.+8      	; 0x2d0 <pinChange+0x24e>
 2c8:	88 b3       	in	r24, 0x18	; 24
 2ca:	82 60       	ori	r24, 0x02	; 2
 2cc:	88 bb       	out	0x18, r24	; 24
 2ce:	08 95       	ret
 2d0:	8c 30       	cpi	r24, 0x0C	; 12
 2d2:	91 05       	cpc	r25, r1
 2d4:	21 f4       	brne	.+8      	; 0x2de <pinChange+0x25c>
 2d6:	88 b3       	in	r24, 0x18	; 24
 2d8:	84 60       	ori	r24, 0x04	; 4
 2da:	88 bb       	out	0x18, r24	; 24
 2dc:	08 95       	ret
 2de:	8d 30       	cpi	r24, 0x0D	; 13
 2e0:	91 05       	cpc	r25, r1
 2e2:	21 f4       	brne	.+8      	; 0x2ec <pinChange+0x26a>
 2e4:	88 b3       	in	r24, 0x18	; 24
 2e6:	88 60       	ori	r24, 0x08	; 8
 2e8:	88 bb       	out	0x18, r24	; 24
 2ea:	08 95       	ret
 2ec:	8e 30       	cpi	r24, 0x0E	; 14
 2ee:	91 05       	cpc	r25, r1
 2f0:	21 f4       	brne	.+8      	; 0x2fa <pinChange+0x278>
 2f2:	88 b3       	in	r24, 0x18	; 24
 2f4:	80 61       	ori	r24, 0x10	; 16
 2f6:	88 bb       	out	0x18, r24	; 24
 2f8:	08 95       	ret
 2fa:	8f 30       	cpi	r24, 0x0F	; 15
 2fc:	91 05       	cpc	r25, r1
 2fe:	21 f4       	brne	.+8      	; 0x308 <pinChange+0x286>
 300:	88 b3       	in	r24, 0x18	; 24
 302:	80 62       	ori	r24, 0x20	; 32
 304:	88 bb       	out	0x18, r24	; 24
 306:	08 95       	ret
 308:	80 31       	cpi	r24, 0x10	; 16
 30a:	91 05       	cpc	r25, r1
 30c:	21 f4       	brne	.+8      	; 0x316 <pinChange+0x294>
 30e:	88 b3       	in	r24, 0x18	; 24
 310:	80 64       	ori	r24, 0x40	; 64
 312:	88 bb       	out	0x18, r24	; 24
 314:	08 95       	ret
 316:	81 31       	cpi	r24, 0x11	; 17
 318:	91 05       	cpc	r25, r1
 31a:	21 f4       	brne	.+8      	; 0x324 <pinChange+0x2a2>
 31c:	88 b3       	in	r24, 0x18	; 24
 31e:	80 68       	ori	r24, 0x80	; 128
 320:	88 bb       	out	0x18, r24	; 24
 322:	08 95       	ret
 324:	84 31       	cpi	r24, 0x14	; 20
 326:	91 05       	cpc	r25, r1
 328:	21 f4       	brne	.+8      	; 0x332 <pinChange+0x2b0>
 32a:	85 b3       	in	r24, 0x15	; 21
 32c:	81 60       	ori	r24, 0x01	; 1
 32e:	85 bb       	out	0x15, r24	; 21
 330:	08 95       	ret
 332:	85 31       	cpi	r24, 0x15	; 21
 334:	91 05       	cpc	r25, r1
 336:	21 f4       	brne	.+8      	; 0x340 <pinChange+0x2be>
 338:	85 b3       	in	r24, 0x15	; 21
 33a:	82 60       	ori	r24, 0x02	; 2
 33c:	85 bb       	out	0x15, r24	; 21
 33e:	08 95       	ret
 340:	86 31       	cpi	r24, 0x16	; 22
 342:	91 05       	cpc	r25, r1
 344:	21 f4       	brne	.+8      	; 0x34e <pinChange+0x2cc>
 346:	85 b3       	in	r24, 0x15	; 21
 348:	84 60       	ori	r24, 0x04	; 4
 34a:	85 bb       	out	0x15, r24	; 21
 34c:	08 95       	ret
 34e:	87 31       	cpi	r24, 0x17	; 23
 350:	91 05       	cpc	r25, r1
 352:	21 f4       	brne	.+8      	; 0x35c <pinChange+0x2da>
 354:	85 b3       	in	r24, 0x15	; 21
 356:	88 60       	ori	r24, 0x08	; 8
 358:	85 bb       	out	0x15, r24	; 21
 35a:	08 95       	ret
 35c:	88 31       	cpi	r24, 0x18	; 24
 35e:	91 05       	cpc	r25, r1
 360:	21 f4       	brne	.+8      	; 0x36a <pinChange+0x2e8>
 362:	85 b3       	in	r24, 0x15	; 21
 364:	80 61       	ori	r24, 0x10	; 16
 366:	85 bb       	out	0x15, r24	; 21
 368:	08 95       	ret
 36a:	89 31       	cpi	r24, 0x19	; 25
 36c:	91 05       	cpc	r25, r1
 36e:	21 f4       	brne	.+8      	; 0x378 <pinChange+0x2f6>
 370:	85 b3       	in	r24, 0x15	; 21
 372:	80 62       	ori	r24, 0x20	; 32
 374:	85 bb       	out	0x15, r24	; 21
 376:	08 95       	ret
 378:	8a 31       	cpi	r24, 0x1A	; 26
 37a:	91 05       	cpc	r25, r1
 37c:	21 f4       	brne	.+8      	; 0x386 <pinChange+0x304>
 37e:	85 b3       	in	r24, 0x15	; 21
 380:	80 64       	ori	r24, 0x40	; 64
 382:	85 bb       	out	0x15, r24	; 21
 384:	08 95       	ret
 386:	8b 31       	cpi	r24, 0x1B	; 27
 388:	91 05       	cpc	r25, r1
 38a:	21 f4       	brne	.+8      	; 0x394 <pinChange+0x312>
 38c:	85 b3       	in	r24, 0x15	; 21
 38e:	80 68       	ori	r24, 0x80	; 128
 390:	85 bb       	out	0x15, r24	; 21
 392:	08 95       	ret
 394:	8e 31       	cpi	r24, 0x1E	; 30
 396:	91 05       	cpc	r25, r1
 398:	21 f4       	brne	.+8      	; 0x3a2 <pinChange+0x320>
 39a:	82 b3       	in	r24, 0x12	; 18
 39c:	81 60       	ori	r24, 0x01	; 1
 39e:	82 bb       	out	0x12, r24	; 18
 3a0:	08 95       	ret
 3a2:	8f 31       	cpi	r24, 0x1F	; 31
 3a4:	91 05       	cpc	r25, r1
 3a6:	21 f4       	brne	.+8      	; 0x3b0 <pinChange+0x32e>
 3a8:	82 b3       	in	r24, 0x12	; 18
 3aa:	82 60       	ori	r24, 0x02	; 2
 3ac:	82 bb       	out	0x12, r24	; 18
 3ae:	08 95       	ret
 3b0:	80 32       	cpi	r24, 0x20	; 32
 3b2:	91 05       	cpc	r25, r1
 3b4:	21 f4       	brne	.+8      	; 0x3be <pinChange+0x33c>
 3b6:	82 b3       	in	r24, 0x12	; 18
 3b8:	84 60       	ori	r24, 0x04	; 4
 3ba:	82 bb       	out	0x12, r24	; 18
 3bc:	08 95       	ret
 3be:	81 32       	cpi	r24, 0x21	; 33
 3c0:	91 05       	cpc	r25, r1
 3c2:	21 f4       	brne	.+8      	; 0x3cc <pinChange+0x34a>
 3c4:	82 b3       	in	r24, 0x12	; 18
 3c6:	88 60       	ori	r24, 0x08	; 8
 3c8:	82 bb       	out	0x12, r24	; 18
 3ca:	08 95       	ret
 3cc:	82 32       	cpi	r24, 0x22	; 34
 3ce:	91 05       	cpc	r25, r1
 3d0:	21 f4       	brne	.+8      	; 0x3da <pinChange+0x358>
 3d2:	82 b3       	in	r24, 0x12	; 18
 3d4:	80 61       	ori	r24, 0x10	; 16
 3d6:	82 bb       	out	0x12, r24	; 18
 3d8:	08 95       	ret
 3da:	83 32       	cpi	r24, 0x23	; 35
 3dc:	91 05       	cpc	r25, r1
 3de:	21 f4       	brne	.+8      	; 0x3e8 <pinChange+0x366>
 3e0:	82 b3       	in	r24, 0x12	; 18
 3e2:	80 62       	ori	r24, 0x20	; 32
 3e4:	82 bb       	out	0x12, r24	; 18
 3e6:	08 95       	ret
 3e8:	84 32       	cpi	r24, 0x24	; 36
 3ea:	91 05       	cpc	r25, r1
 3ec:	21 f4       	brne	.+8      	; 0x3f6 <pinChange+0x374>
 3ee:	82 b3       	in	r24, 0x12	; 18
 3f0:	80 64       	ori	r24, 0x40	; 64
 3f2:	82 bb       	out	0x12, r24	; 18
 3f4:	08 95       	ret
 3f6:	85 97       	sbiw	r24, 0x25	; 37
 3f8:	19 f4       	brne	.+6      	; 0x400 <__EEPROM_REGION_LENGTH__>
 3fa:	82 b3       	in	r24, 0x12	; 18
 3fc:	80 68       	ori	r24, 0x80	; 128
 3fe:	82 bb       	out	0x12, r24	; 18
 400:	08 95       	ret

00000402 <Lcd4_Port>:
 402:	cf 93       	push	r28
 404:	c8 2f       	mov	r28, r24
 406:	80 ff       	sbrs	r24, 0
 408:	07 c0       	rjmp	.+14     	; 0x418 <Lcd4_Port+0x16>
 40a:	61 e0       	ldi	r22, 0x01	; 1
 40c:	70 e0       	ldi	r23, 0x00	; 0
 40e:	84 e0       	ldi	r24, 0x04	; 4
 410:	90 e0       	ldi	r25, 0x00	; 0
 412:	0e 94 41 00 	call	0x82	; 0x82 <pinChange>
 416:	06 c0       	rjmp	.+12     	; 0x424 <Lcd4_Port+0x22>
 418:	60 e0       	ldi	r22, 0x00	; 0
 41a:	70 e0       	ldi	r23, 0x00	; 0
 41c:	84 e0       	ldi	r24, 0x04	; 4
 41e:	90 e0       	ldi	r25, 0x00	; 0
 420:	0e 94 41 00 	call	0x82	; 0x82 <pinChange>
 424:	c1 ff       	sbrs	r28, 1
 426:	07 c0       	rjmp	.+14     	; 0x436 <Lcd4_Port+0x34>
 428:	61 e0       	ldi	r22, 0x01	; 1
 42a:	70 e0       	ldi	r23, 0x00	; 0
 42c:	85 e0       	ldi	r24, 0x05	; 5
 42e:	90 e0       	ldi	r25, 0x00	; 0
 430:	0e 94 41 00 	call	0x82	; 0x82 <pinChange>
 434:	06 c0       	rjmp	.+12     	; 0x442 <Lcd4_Port+0x40>
 436:	60 e0       	ldi	r22, 0x00	; 0
 438:	70 e0       	ldi	r23, 0x00	; 0
 43a:	85 e0       	ldi	r24, 0x05	; 5
 43c:	90 e0       	ldi	r25, 0x00	; 0
 43e:	0e 94 41 00 	call	0x82	; 0x82 <pinChange>
 442:	c2 ff       	sbrs	r28, 2
 444:	07 c0       	rjmp	.+14     	; 0x454 <Lcd4_Port+0x52>
 446:	61 e0       	ldi	r22, 0x01	; 1
 448:	70 e0       	ldi	r23, 0x00	; 0
 44a:	86 e0       	ldi	r24, 0x06	; 6
 44c:	90 e0       	ldi	r25, 0x00	; 0
 44e:	0e 94 41 00 	call	0x82	; 0x82 <pinChange>
 452:	06 c0       	rjmp	.+12     	; 0x460 <Lcd4_Port+0x5e>
 454:	60 e0       	ldi	r22, 0x00	; 0
 456:	70 e0       	ldi	r23, 0x00	; 0
 458:	86 e0       	ldi	r24, 0x06	; 6
 45a:	90 e0       	ldi	r25, 0x00	; 0
 45c:	0e 94 41 00 	call	0x82	; 0x82 <pinChange>
 460:	c3 ff       	sbrs	r28, 3
 462:	07 c0       	rjmp	.+14     	; 0x472 <Lcd4_Port+0x70>
 464:	61 e0       	ldi	r22, 0x01	; 1
 466:	70 e0       	ldi	r23, 0x00	; 0
 468:	87 e0       	ldi	r24, 0x07	; 7
 46a:	90 e0       	ldi	r25, 0x00	; 0
 46c:	0e 94 41 00 	call	0x82	; 0x82 <pinChange>
 470:	06 c0       	rjmp	.+12     	; 0x47e <Lcd4_Port+0x7c>
 472:	60 e0       	ldi	r22, 0x00	; 0
 474:	70 e0       	ldi	r23, 0x00	; 0
 476:	87 e0       	ldi	r24, 0x07	; 7
 478:	90 e0       	ldi	r25, 0x00	; 0
 47a:	0e 94 41 00 	call	0x82	; 0x82 <pinChange>
 47e:	cf 91       	pop	r28
 480:	08 95       	ret

00000482 <Lcd4_Cmd>:
 482:	cf 93       	push	r28
 484:	c8 2f       	mov	r28, r24
 486:	60 e0       	ldi	r22, 0x00	; 0
 488:	70 e0       	ldi	r23, 0x00	; 0
 48a:	80 e0       	ldi	r24, 0x00	; 0
 48c:	90 e0       	ldi	r25, 0x00	; 0
 48e:	0e 94 41 00 	call	0x82	; 0x82 <pinChange>
 492:	8c 2f       	mov	r24, r28
 494:	0e 94 01 02 	call	0x402	; 0x402 <Lcd4_Port>
 498:	61 e0       	ldi	r22, 0x01	; 1
 49a:	70 e0       	ldi	r23, 0x00	; 0
 49c:	81 e0       	ldi	r24, 0x01	; 1
 49e:	90 e0       	ldi	r25, 0x00	; 0
 4a0:	0e 94 41 00 	call	0x82	; 0x82 <pinChange>
 4a4:	89 ef       	ldi	r24, 0xF9	; 249
 4a6:	90 e0       	ldi	r25, 0x00	; 0
 4a8:	01 97       	sbiw	r24, 0x01	; 1
 4aa:	f1 f7       	brne	.-4      	; 0x4a8 <Lcd4_Cmd+0x26>
 4ac:	00 c0       	rjmp	.+0      	; 0x4ae <Lcd4_Cmd+0x2c>
 4ae:	00 00       	nop
 4b0:	60 e0       	ldi	r22, 0x00	; 0
 4b2:	70 e0       	ldi	r23, 0x00	; 0
 4b4:	81 e0       	ldi	r24, 0x01	; 1
 4b6:	90 e0       	ldi	r25, 0x00	; 0
 4b8:	0e 94 41 00 	call	0x82	; 0x82 <pinChange>
 4bc:	89 ef       	ldi	r24, 0xF9	; 249
 4be:	90 e0       	ldi	r25, 0x00	; 0
 4c0:	01 97       	sbiw	r24, 0x01	; 1
 4c2:	f1 f7       	brne	.-4      	; 0x4c0 <Lcd4_Cmd+0x3e>
 4c4:	00 c0       	rjmp	.+0      	; 0x4c6 <Lcd4_Cmd+0x44>
 4c6:	00 00       	nop
 4c8:	cf 91       	pop	r28
 4ca:	08 95       	ret

000004cc <Lcd4_Clear>:
 4cc:	80 e0       	ldi	r24, 0x00	; 0
 4ce:	0e 94 41 02 	call	0x482	; 0x482 <Lcd4_Cmd>
 4d2:	81 e0       	ldi	r24, 0x01	; 1
 4d4:	0e 94 41 02 	call	0x482	; 0x482 <Lcd4_Cmd>
 4d8:	08 95       	ret

000004da <Lcd4_Set_Cursor>:
 4da:	cf 93       	push	r28
 4dc:	81 30       	cpi	r24, 0x01	; 1
 4de:	61 f4       	brne	.+24     	; 0x4f8 <Lcd4_Set_Cursor+0x1e>
 4e0:	80 e8       	ldi	r24, 0x80	; 128
 4e2:	86 0f       	add	r24, r22
 4e4:	c6 2f       	mov	r28, r22
 4e6:	cf 70       	andi	r28, 0x0F	; 15
 4e8:	82 95       	swap	r24
 4ea:	8f 70       	andi	r24, 0x0F	; 15
 4ec:	0e 94 41 02 	call	0x482	; 0x482 <Lcd4_Cmd>
 4f0:	8c 2f       	mov	r24, r28
 4f2:	0e 94 41 02 	call	0x482	; 0x482 <Lcd4_Cmd>
 4f6:	0d c0       	rjmp	.+26     	; 0x512 <Lcd4_Set_Cursor+0x38>
 4f8:	82 30       	cpi	r24, 0x02	; 2
 4fa:	59 f4       	brne	.+22     	; 0x512 <Lcd4_Set_Cursor+0x38>
 4fc:	80 ec       	ldi	r24, 0xC0	; 192
 4fe:	86 0f       	add	r24, r22
 500:	c6 2f       	mov	r28, r22
 502:	cf 70       	andi	r28, 0x0F	; 15
 504:	82 95       	swap	r24
 506:	8f 70       	andi	r24, 0x0F	; 15
 508:	0e 94 41 02 	call	0x482	; 0x482 <Lcd4_Cmd>
 50c:	8c 2f       	mov	r24, r28
 50e:	0e 94 41 02 	call	0x482	; 0x482 <Lcd4_Cmd>
 512:	cf 91       	pop	r28
 514:	08 95       	ret

00000516 <Lcd4_Init>:
 516:	80 e0       	ldi	r24, 0x00	; 0
 518:	0e 94 01 02 	call	0x402	; 0x402 <Lcd4_Port>
 51c:	87 e8       	ldi	r24, 0x87	; 135
 51e:	93 e1       	ldi	r25, 0x13	; 19
 520:	01 97       	sbiw	r24, 0x01	; 1
 522:	f1 f7       	brne	.-4      	; 0x520 <Lcd4_Init+0xa>
 524:	00 c0       	rjmp	.+0      	; 0x526 <Lcd4_Init+0x10>
 526:	00 00       	nop
 528:	83 e0       	ldi	r24, 0x03	; 3
 52a:	0e 94 41 02 	call	0x482	; 0x482 <Lcd4_Cmd>
 52e:	81 ee       	ldi	r24, 0xE1	; 225
 530:	94 e0       	ldi	r25, 0x04	; 4
 532:	01 97       	sbiw	r24, 0x01	; 1
 534:	f1 f7       	brne	.-4      	; 0x532 <Lcd4_Init+0x1c>
 536:	00 c0       	rjmp	.+0      	; 0x538 <Lcd4_Init+0x22>
 538:	00 00       	nop
 53a:	83 e0       	ldi	r24, 0x03	; 3
 53c:	0e 94 41 02 	call	0x482	; 0x482 <Lcd4_Cmd>
 540:	8d eb       	ldi	r24, 0xBD	; 189
 542:	9a e0       	ldi	r25, 0x0A	; 10
 544:	01 97       	sbiw	r24, 0x01	; 1
 546:	f1 f7       	brne	.-4      	; 0x544 <Lcd4_Init+0x2e>
 548:	00 c0       	rjmp	.+0      	; 0x54a <Lcd4_Init+0x34>
 54a:	00 00       	nop
 54c:	83 e0       	ldi	r24, 0x03	; 3
 54e:	0e 94 41 02 	call	0x482	; 0x482 <Lcd4_Cmd>
 552:	82 e0       	ldi	r24, 0x02	; 2
 554:	0e 94 41 02 	call	0x482	; 0x482 <Lcd4_Cmd>
 558:	82 e0       	ldi	r24, 0x02	; 2
 55a:	0e 94 41 02 	call	0x482	; 0x482 <Lcd4_Cmd>
 55e:	88 e0       	ldi	r24, 0x08	; 8
 560:	0e 94 41 02 	call	0x482	; 0x482 <Lcd4_Cmd>
 564:	80 e0       	ldi	r24, 0x00	; 0
 566:	0e 94 41 02 	call	0x482	; 0x482 <Lcd4_Cmd>
 56a:	8c e0       	ldi	r24, 0x0C	; 12
 56c:	0e 94 41 02 	call	0x482	; 0x482 <Lcd4_Cmd>
 570:	80 e0       	ldi	r24, 0x00	; 0
 572:	0e 94 41 02 	call	0x482	; 0x482 <Lcd4_Cmd>
 576:	86 e0       	ldi	r24, 0x06	; 6
 578:	0e 94 41 02 	call	0x482	; 0x482 <Lcd4_Cmd>
 57c:	08 95       	ret

0000057e <Lcd4_Write_Char>:
 57e:	cf 93       	push	r28
 580:	df 93       	push	r29
 582:	d8 2f       	mov	r29, r24
 584:	df 70       	andi	r29, 0x0F	; 15
 586:	c8 2f       	mov	r28, r24
 588:	c0 7f       	andi	r28, 0xF0	; 240
 58a:	61 e0       	ldi	r22, 0x01	; 1
 58c:	70 e0       	ldi	r23, 0x00	; 0
 58e:	80 e0       	ldi	r24, 0x00	; 0
 590:	90 e0       	ldi	r25, 0x00	; 0
 592:	0e 94 41 00 	call	0x82	; 0x82 <pinChange>
 596:	8c 2f       	mov	r24, r28
 598:	82 95       	swap	r24
 59a:	8f 70       	andi	r24, 0x0F	; 15
 59c:	0e 94 01 02 	call	0x402	; 0x402 <Lcd4_Port>
 5a0:	61 e0       	ldi	r22, 0x01	; 1
 5a2:	70 e0       	ldi	r23, 0x00	; 0
 5a4:	81 e0       	ldi	r24, 0x01	; 1
 5a6:	90 e0       	ldi	r25, 0x00	; 0
 5a8:	0e 94 41 00 	call	0x82	; 0x82 <pinChange>
 5ac:	89 ef       	ldi	r24, 0xF9	; 249
 5ae:	90 e0       	ldi	r25, 0x00	; 0
 5b0:	01 97       	sbiw	r24, 0x01	; 1
 5b2:	f1 f7       	brne	.-4      	; 0x5b0 <Lcd4_Write_Char+0x32>
 5b4:	00 c0       	rjmp	.+0      	; 0x5b6 <Lcd4_Write_Char+0x38>
 5b6:	00 00       	nop
 5b8:	60 e0       	ldi	r22, 0x00	; 0
 5ba:	70 e0       	ldi	r23, 0x00	; 0
 5bc:	81 e0       	ldi	r24, 0x01	; 1
 5be:	90 e0       	ldi	r25, 0x00	; 0
 5c0:	0e 94 41 00 	call	0x82	; 0x82 <pinChange>
 5c4:	89 ef       	ldi	r24, 0xF9	; 249
 5c6:	90 e0       	ldi	r25, 0x00	; 0
 5c8:	01 97       	sbiw	r24, 0x01	; 1
 5ca:	f1 f7       	brne	.-4      	; 0x5c8 <Lcd4_Write_Char+0x4a>
 5cc:	00 c0       	rjmp	.+0      	; 0x5ce <Lcd4_Write_Char+0x50>
 5ce:	00 00       	nop
 5d0:	8d 2f       	mov	r24, r29
 5d2:	0e 94 01 02 	call	0x402	; 0x402 <Lcd4_Port>
 5d6:	61 e0       	ldi	r22, 0x01	; 1
 5d8:	70 e0       	ldi	r23, 0x00	; 0
 5da:	81 e0       	ldi	r24, 0x01	; 1
 5dc:	90 e0       	ldi	r25, 0x00	; 0
 5de:	0e 94 41 00 	call	0x82	; 0x82 <pinChange>
 5e2:	89 ef       	ldi	r24, 0xF9	; 249
 5e4:	90 e0       	ldi	r25, 0x00	; 0
 5e6:	01 97       	sbiw	r24, 0x01	; 1
 5e8:	f1 f7       	brne	.-4      	; 0x5e6 <Lcd4_Write_Char+0x68>
 5ea:	00 c0       	rjmp	.+0      	; 0x5ec <Lcd4_Write_Char+0x6e>
 5ec:	00 00       	nop
 5ee:	60 e0       	ldi	r22, 0x00	; 0
 5f0:	70 e0       	ldi	r23, 0x00	; 0
 5f2:	81 e0       	ldi	r24, 0x01	; 1
 5f4:	90 e0       	ldi	r25, 0x00	; 0
 5f6:	0e 94 41 00 	call	0x82	; 0x82 <pinChange>
 5fa:	89 ef       	ldi	r24, 0xF9	; 249
 5fc:	90 e0       	ldi	r25, 0x00	; 0
 5fe:	01 97       	sbiw	r24, 0x01	; 1
 600:	f1 f7       	brne	.-4      	; 0x5fe <Lcd4_Write_Char+0x80>
 602:	00 c0       	rjmp	.+0      	; 0x604 <Lcd4_Write_Char+0x86>
 604:	00 00       	nop
 606:	df 91       	pop	r29
 608:	cf 91       	pop	r28
 60a:	08 95       	ret

0000060c <Lcd4_Write_String>:
 60c:	0f 93       	push	r16
 60e:	1f 93       	push	r17
 610:	cf 93       	push	r28
 612:	df 93       	push	r29
 614:	8c 01       	movw	r16, r24
 616:	c0 e0       	ldi	r28, 0x00	; 0
 618:	d0 e0       	ldi	r29, 0x00	; 0
 61a:	03 c0       	rjmp	.+6      	; 0x622 <Lcd4_Write_String+0x16>
 61c:	0e 94 bf 02 	call	0x57e	; 0x57e <Lcd4_Write_Char>
 620:	21 96       	adiw	r28, 0x01	; 1
 622:	f8 01       	movw	r30, r16
 624:	ec 0f       	add	r30, r28
 626:	fd 1f       	adc	r31, r29
 628:	80 81       	ld	r24, Z
 62a:	81 11       	cpse	r24, r1
 62c:	f7 cf       	rjmp	.-18     	; 0x61c <Lcd4_Write_String+0x10>
 62e:	df 91       	pop	r29
 630:	cf 91       	pop	r28
 632:	1f 91       	pop	r17
 634:	0f 91       	pop	r16
 636:	08 95       	ret

00000638 <UART_init>:


void UART_init()
{	
	
	UCSRB = 0b00011000;// Turn on the reception and Transmission
 638:	88 e1       	ldi	r24, 0x18	; 24
 63a:	8a b9       	out	0x0a, r24	; 10
	UCSRC = 0b10000110;
 63c:	86 e8       	ldi	r24, 0x86	; 134
 63e:	80 bd       	out	0x20, r24	; 32
	//UCSRC |= (1 << URSEL) | (1 << UCSZ0) | (1 << UCSZ1);// Use 8-bit character sizes
	UCSRA = 0b00000000;
 640:	1b b8       	out	0x0b, r1	; 11
	UCSRA |= (1 << RXC) | (1<<TXC);
 642:	8b b1       	in	r24, 0x0b	; 11
 644:	80 6c       	ori	r24, 0xC0	; 192
 646:	8b b9       	out	0x0b, r24	; 11
	// | (0<<TXC)|(0<<UDRE)|(0<<FE)|(0<<DOR)|(0<UPE)|(0<<U2X)|(0<<MPCM)

	//UBRRL = BAUD_PRESCALE;		// Load lower 8-bits of the baud rate
	//UBRRH = (BAUD_PRESCALE >> 8);	// Load upper 8-bits
	UBRRL = 0x19;
 648:	89 e1       	ldi	r24, 0x19	; 25
 64a:	89 b9       	out	0x09, r24	; 9
	UBRRH = 0x00;
 64c:	10 bc       	out	0x20, r1	; 32
 64e:	08 95       	ret

00000650 <UART_RxChar>:
}

unsigned char UART_RxChar()
{
	while ((UCSRA & (1 << RXC)) == 0x00);// Wait till data is received
 650:	5f 9b       	sbis	0x0b, 7	; 11
 652:	fe cf       	rjmp	.-4      	; 0x650 <UART_RxChar>
	return UDR;		// Return the byte
 654:	8c b1       	in	r24, 0x0c	; 12
}
 656:	08 95       	ret

00000658 <UART_TxChar>:

void UART_TxChar(unsigned char data){
	while((UCSRA & (1 << UDRE)) == 0x00);
 658:	5d 9b       	sbis	0x0b, 5	; 11
 65a:	fe cf       	rjmp	.-4      	; 0x658 <UART_TxChar>
	UDR = data;
 65c:	8c b9       	out	0x0c, r24	; 12
 65e:	08 95       	ret

00000660 <main>:
	
}
int main(void)
{	
 660:	cf 93       	push	r28
 662:	df 93       	push	r29
 664:	cd b7       	in	r28, 0x3d	; 61
 666:	de b7       	in	r29, 0x3e	; 62
 668:	2e 97       	sbiw	r28, 0x0e	; 14
 66a:	0f b6       	in	r0, 0x3f	; 63
 66c:	f8 94       	cli
 66e:	de bf       	out	0x3e, r29	; 62
 670:	0f be       	out	0x3f, r0	; 63
 672:	cd bf       	out	0x3d, r28	; 61
   DDRD = 0b11111110;
 674:	8e ef       	ldi	r24, 0xFE	; 254
 676:	81 bb       	out	0x11, r24	; 17
   DDRA = 0xFF;
 678:	8f ef       	ldi	r24, 0xFF	; 255
 67a:	8a bb       	out	0x1a, r24	; 26
   
   Lcd4_Init();
 67c:	0e 94 8b 02 	call	0x516	; 0x516 <Lcd4_Init>
   UART_init();
 680:	0e 94 1c 03 	call	0x638	; 0x638 <UART_init>
   unsigned char id[10];
   int count = 1;
   Lcd4_Clear();
 684:	0e 94 66 02 	call	0x4cc	; 0x4cc <Lcd4_Clear>
   Lcd4_Write_String("Waiting for  ");
 688:	8a e9       	ldi	r24, 0x9A	; 154
 68a:	90 e0       	ldi	r25, 0x00	; 0
 68c:	0e 94 06 03 	call	0x60c	; 0x60c <Lcd4_Write_String>
	#else
		//round up by default
		__ticks_dc = (uint32_t)(ceil(fabs(__tmp)));
	#endif

	__builtin_avr_delay_cycles(__ticks_dc);
 690:	2f e9       	ldi	r18, 0x9F	; 159
 692:	36 e8       	ldi	r19, 0x86	; 134
 694:	81 e0       	ldi	r24, 0x01	; 1
 696:	21 50       	subi	r18, 0x01	; 1
 698:	30 40       	sbci	r19, 0x00	; 0
 69a:	80 40       	sbci	r24, 0x00	; 0
 69c:	e1 f7       	brne	.-8      	; 0x696 <main+0x36>
 69e:	00 c0       	rjmp	.+0      	; 0x6a0 <main+0x40>
 6a0:	00 00       	nop
   _delay_ms(500);
   Lcd4_Set_Cursor(2, 1);
 6a2:	61 e0       	ldi	r22, 0x01	; 1
 6a4:	82 e0       	ldi	r24, 0x02	; 2
 6a6:	0e 94 6d 02 	call	0x4da	; 0x4da <Lcd4_Set_Cursor>
   Lcd4_Write_String("RFID Tag");
 6aa:	88 ea       	ldi	r24, 0xA8	; 168
 6ac:	90 e0       	ldi	r25, 0x00	; 0
 6ae:	0e 94 06 03 	call	0x60c	; 0x60c <Lcd4_Write_String>
 6b2:	9f e9       	ldi	r25, 0x9F	; 159
 6b4:	26 e8       	ldi	r18, 0x86	; 134
 6b6:	31 e0       	ldi	r19, 0x01	; 1
 6b8:	91 50       	subi	r25, 0x01	; 1
 6ba:	20 40       	sbci	r18, 0x00	; 0
 6bc:	30 40       	sbci	r19, 0x00	; 0
 6be:	e1 f7       	brne	.-8      	; 0x6b8 <main+0x58>
 6c0:	00 c0       	rjmp	.+0      	; 0x6c2 <main+0x62>
 6c2:	00 00       	nop
   _delay_ms(500);
   Lcd4_Clear();
 6c4:	0e 94 66 02 	call	0x4cc	; 0x4cc <Lcd4_Clear>
   
   Lcd4_Set_Cursor(1, 0);
 6c8:	60 e0       	ldi	r22, 0x00	; 0
 6ca:	81 e0       	ldi	r24, 0x01	; 1
 6cc:	0e 94 6d 02 	call	0x4da	; 0x4da <Lcd4_Set_Cursor>
   
   int match = 0;
 6d0:	e1 2c       	mov	r14, r1
 6d2:	f1 2c       	mov	r15, r1
   DDRA = 0xFF;
   
   Lcd4_Init();
   UART_init();
   unsigned char id[10];
   int count = 1;
 6d4:	01 e0       	ldi	r16, 0x01	; 1
 6d6:	10 e0       	ldi	r17, 0x00	; 0
   Lcd4_Set_Cursor(1, 0);
   
   int match = 0;
    while (1) 
    {	
		id[count-1] = UART_RxChar();
 6d8:	0e 94 28 03 	call	0x650	; 0x650 <UART_RxChar>
 6dc:	f8 01       	movw	r30, r16
 6de:	31 97       	sbiw	r30, 0x01	; 1
 6e0:	21 e0       	ldi	r18, 0x01	; 1
 6e2:	30 e0       	ldi	r19, 0x00	; 0
 6e4:	2c 0f       	add	r18, r28
 6e6:	3d 1f       	adc	r19, r29
 6e8:	e2 0f       	add	r30, r18
 6ea:	f3 1f       	adc	r31, r19
 6ec:	80 83       	st	Z, r24
		Lcd4_Write_Char(id[count-1]);
 6ee:	0e 94 bf 02 	call	0x57e	; 0x57e <Lcd4_Write_Char>
		if(count < id_len){
 6f2:	60 91 96 00 	lds	r22, 0x0096	; 0x800096 <id_len>
 6f6:	70 91 97 00 	lds	r23, 0x0097	; 0x800097 <id_len+0x1>
 6fa:	06 17       	cp	r16, r22
 6fc:	17 07       	cpc	r17, r23
 6fe:	1c f4       	brge	.+6      	; 0x706 <main+0xa6>
			count++;
 700:	0f 5f       	subi	r16, 0xFF	; 255
 702:	1f 4f       	sbci	r17, 0xFF	; 255
			continue;
 704:	e9 cf       	rjmp	.-46     	; 0x6d8 <main+0x78>
		 }
		 else if(count == id_len){
 706:	06 17       	cp	r16, r22
 708:	17 07       	cpc	r17, r23
 70a:	b1 f5       	brne	.+108    	; 0x778 <main+0x118>
 70c:	28 c0       	rjmp	.+80     	; 0x75e <main+0xfe>
			 int j;
			 for(int i = 0; i<total_id; i++){
				 for(j = 0; j<id_len; j++){
					 if(valid_id[i][j] != id[j]){
 70e:	ca 01       	movw	r24, r20
 710:	88 0f       	add	r24, r24
 712:	99 1f       	adc	r25, r25
 714:	88 0f       	add	r24, r24
 716:	99 1f       	adc	r25, r25
 718:	88 0f       	add	r24, r24
 71a:	99 1f       	adc	r25, r25
 71c:	fa 01       	movw	r30, r20
 71e:	ee 0f       	add	r30, r30
 720:	ff 1f       	adc	r31, r31
 722:	e8 0f       	add	r30, r24
 724:	f9 1f       	adc	r31, r25
 726:	ec 59       	subi	r30, 0x9C	; 156
 728:	ff 4f       	sbci	r31, 0xFF	; 255
 72a:	e2 0f       	add	r30, r18
 72c:	f3 1f       	adc	r31, r19
 72e:	90 81       	ld	r25, Z
 730:	e1 e0       	ldi	r30, 0x01	; 1
 732:	f0 e0       	ldi	r31, 0x00	; 0
 734:	ec 0f       	add	r30, r28
 736:	fd 1f       	adc	r31, r29
 738:	e2 0f       	add	r30, r18
 73a:	f3 1f       	adc	r31, r19
 73c:	80 81       	ld	r24, Z
 73e:	98 13       	cpse	r25, r24
 740:	08 c0       	rjmp	.+16     	; 0x752 <main+0xf2>
			continue;
		 }
		 else if(count == id_len){
			 int j;
			 for(int i = 0; i<total_id; i++){
				 for(j = 0; j<id_len; j++){
 742:	2f 5f       	subi	r18, 0xFF	; 255
 744:	3f 4f       	sbci	r19, 0xFF	; 255
 746:	02 c0       	rjmp	.+4      	; 0x74c <main+0xec>
 748:	20 e0       	ldi	r18, 0x00	; 0
 74a:	30 e0       	ldi	r19, 0x00	; 0
 74c:	26 17       	cp	r18, r22
 74e:	37 07       	cpc	r19, r23
 750:	f4 f2       	brlt	.-68     	; 0x70e <main+0xae>
					 if(valid_id[i][j] != id[j]){
						break;
					 }	 
				 }
				 if(j == id_len){
 752:	26 17       	cp	r18, r22
 754:	37 07       	cpc	r19, r23
 756:	69 f0       	breq	.+26     	; 0x772 <main+0x112>
			count++;
			continue;
		 }
		 else if(count == id_len){
			 int j;
			 for(int i = 0; i<total_id; i++){
 758:	4f 5f       	subi	r20, 0xFF	; 255
 75a:	5f 4f       	sbci	r21, 0xFF	; 255
 75c:	02 c0       	rjmp	.+4      	; 0x762 <main+0x102>
 75e:	40 e0       	ldi	r20, 0x00	; 0
 760:	50 e0       	ldi	r21, 0x00	; 0
 762:	80 91 98 00 	lds	r24, 0x0098	; 0x800098 <total_id>
 766:	90 91 99 00 	lds	r25, 0x0099	; 0x800099 <total_id+0x1>
 76a:	48 17       	cp	r20, r24
 76c:	59 07       	cpc	r21, r25
 76e:	64 f3       	brlt	.-40     	; 0x748 <main+0xe8>
 770:	03 c0       	rjmp	.+6      	; 0x778 <main+0x118>
					 if(valid_id[i][j] != id[j]){
						break;
					 }	 
				 }
				 if(j == id_len){
					match = 1;
 772:	ee 24       	eor	r14, r14
 774:	e3 94       	inc	r14
 776:	f1 2c       	mov	r15, r1
					break;
				 }
			 }
		 }
		 if(match == 0){
 778:	e1 14       	cp	r14, r1
 77a:	f1 04       	cpc	r15, r1
 77c:	79 f4       	brne	.+30     	; 0x79c <main+0x13c>
			 Lcd4_Clear();
 77e:	0e 94 66 02 	call	0x4cc	; 0x4cc <Lcd4_Clear>
			 Lcd4_Write_String("ID match: ");
 782:	81 eb       	ldi	r24, 0xB1	; 177
 784:	90 e0       	ldi	r25, 0x00	; 0
 786:	0e 94 06 03 	call	0x60c	; 0x60c <Lcd4_Write_String>
			 Lcd4_Set_Cursor(2,0);
 78a:	60 e0       	ldi	r22, 0x00	; 0
 78c:	82 e0       	ldi	r24, 0x02	; 2
 78e:	0e 94 6d 02 	call	0x4da	; 0x4da <Lcd4_Set_Cursor>
			 Lcd4_Write_String("Not found. Reset");
 792:	8c eb       	ldi	r24, 0xBC	; 188
 794:	90 e0       	ldi	r25, 0x00	; 0
 796:	0e 94 06 03 	call	0x60c	; 0x60c <Lcd4_Write_String>
 79a:	9e cf       	rjmp	.-196    	; 0x6d8 <main+0x78>
		 }
		 else if(match == 1){
 79c:	31 e0       	ldi	r19, 0x01	; 1
 79e:	e3 16       	cp	r14, r19
 7a0:	f1 04       	cpc	r15, r1
 7a2:	09 f0       	breq	.+2      	; 0x7a6 <main+0x146>
 7a4:	99 cf       	rjmp	.-206    	; 0x6d8 <main+0x78>
			  Lcd4_Clear();
 7a6:	0e 94 66 02 	call	0x4cc	; 0x4cc <Lcd4_Clear>
			  Lcd4_Write_String("ID match found!");
 7aa:	8d ec       	ldi	r24, 0xCD	; 205
 7ac:	90 e0       	ldi	r25, 0x00	; 0
 7ae:	0e 94 06 03 	call	0x60c	; 0x60c <Lcd4_Write_String>
 7b2:	8f e1       	ldi	r24, 0x1F	; 31
 7b4:	91 ea       	ldi	r25, 0xA1	; 161
 7b6:	27 e0       	ldi	r18, 0x07	; 7
 7b8:	81 50       	subi	r24, 0x01	; 1
 7ba:	90 40       	sbci	r25, 0x00	; 0
 7bc:	20 40       	sbci	r18, 0x00	; 0
 7be:	e1 f7       	brne	.-8      	; 0x7b8 <main+0x158>
 7c0:	00 c0       	rjmp	.+0      	; 0x7c2 <main+0x162>
 7c2:	00 00       	nop
			  _delay_ms(2500);
			  Lcd4_Clear();
 7c4:	0e 94 66 02 	call	0x4cc	; 0x4cc <Lcd4_Clear>
			  
			  int lock = rand() % (9999 + 1 - 1000) + 1000;
 7c8:	0e 94 98 04 	call	0x930	; 0x930 <rand>
 7cc:	68 e2       	ldi	r22, 0x28	; 40
 7ce:	73 e2       	ldi	r23, 0x23	; 35
 7d0:	0e 94 24 04 	call	0x848	; 0x848 <__divmodhi4>
 7d4:	88 51       	subi	r24, 0x18	; 24
 7d6:	9c 4f       	sbci	r25, 0xFC	; 252
			  unsigned char locks[4];
			  //int div = 99;
			  int mod = 0;
 7d8:	20 e0       	ldi	r18, 0x00	; 0
 7da:	30 e0       	ldi	r19, 0x00	; 0
			  while(lock != 0){
 7dc:	10 c0       	rjmp	.+32     	; 0x7fe <main+0x19e>
				  locks[mod] = (lock % 10) + '0';
 7de:	6a e0       	ldi	r22, 0x0A	; 10
 7e0:	70 e0       	ldi	r23, 0x00	; 0
 7e2:	0e 94 24 04 	call	0x848	; 0x848 <__divmodhi4>
 7e6:	eb e0       	ldi	r30, 0x0B	; 11
 7e8:	f0 e0       	ldi	r31, 0x00	; 0
 7ea:	ec 0f       	add	r30, r28
 7ec:	fd 1f       	adc	r31, r29
 7ee:	e2 0f       	add	r30, r18
 7f0:	f3 1f       	adc	r31, r19
 7f2:	80 5d       	subi	r24, 0xD0	; 208
 7f4:	80 83       	st	Z, r24
				  lock = lock / 10;
 7f6:	86 2f       	mov	r24, r22
 7f8:	97 2f       	mov	r25, r23
				  mod++;
 7fa:	2f 5f       	subi	r18, 0xFF	; 255
 7fc:	3f 4f       	sbci	r19, 0xFF	; 255
			  
			  int lock = rand() % (9999 + 1 - 1000) + 1000;
			  unsigned char locks[4];
			  //int div = 99;
			  int mod = 0;
			  while(lock != 0){
 7fe:	00 97       	sbiw	r24, 0x00	; 0
 800:	71 f7       	brne	.-36     	; 0x7de <main+0x17e>
				  locks[mod] = (lock % 10) + '0';
				  lock = lock / 10;
				  mod++;
				  
			  }
			  Lcd4_Write_String("Your Lock Code: ");
 802:	8d ed       	ldi	r24, 0xDD	; 221
 804:	90 e0       	ldi	r25, 0x00	; 0
 806:	0e 94 06 03 	call	0x60c	; 0x60c <Lcd4_Write_String>
			  Lcd4_Set_Cursor(2, 0);
 80a:	60 e0       	ldi	r22, 0x00	; 0
 80c:	82 e0       	ldi	r24, 0x02	; 2
 80e:	0e 94 6d 02 	call	0x4da	; 0x4da <Lcd4_Set_Cursor>
			  for(int i = 3; i!=-1; i--){
 812:	0f 2e       	mov	r0, r31
 814:	f3 e0       	ldi	r31, 0x03	; 3
 816:	cf 2e       	mov	r12, r31
 818:	d1 2c       	mov	r13, r1
 81a:	f0 2d       	mov	r31, r0
 81c:	10 c0       	rjmp	.+32     	; 0x83e <__DATA_REGION_LENGTH__+0x3e>
				  Lcd4_Write_Char(locks[i]);
 81e:	eb e0       	ldi	r30, 0x0B	; 11
 820:	f0 e0       	ldi	r31, 0x00	; 0
 822:	ec 0f       	add	r30, r28
 824:	fd 1f       	adc	r31, r29
 826:	ec 0d       	add	r30, r12
 828:	fd 1d       	adc	r31, r13
 82a:	b0 80       	ld	r11, Z
 82c:	8b 2d       	mov	r24, r11
 82e:	0e 94 bf 02 	call	0x57e	; 0x57e <Lcd4_Write_Char>
				  UART_TxChar(locks[i]);
 832:	8b 2d       	mov	r24, r11
 834:	0e 94 2c 03 	call	0x658	; 0x658 <UART_TxChar>
				  mod++;
				  
			  }
			  Lcd4_Write_String("Your Lock Code: ");
			  Lcd4_Set_Cursor(2, 0);
			  for(int i = 3; i!=-1; i--){
 838:	31 e0       	ldi	r19, 0x01	; 1
 83a:	c3 1a       	sub	r12, r19
 83c:	d1 08       	sbc	r13, r1
 83e:	8f ef       	ldi	r24, 0xFF	; 255
 840:	c8 16       	cp	r12, r24
 842:	d8 06       	cpc	r13, r24
 844:	61 f7       	brne	.-40     	; 0x81e <__DATA_REGION_LENGTH__+0x1e>
 846:	48 cf       	rjmp	.-368    	; 0x6d8 <main+0x78>

00000848 <__divmodhi4>:
 848:	97 fb       	bst	r25, 7
 84a:	07 2e       	mov	r0, r23
 84c:	16 f4       	brtc	.+4      	; 0x852 <__divmodhi4+0xa>
 84e:	00 94       	com	r0
 850:	07 d0       	rcall	.+14     	; 0x860 <__divmodhi4_neg1>
 852:	77 fd       	sbrc	r23, 7
 854:	09 d0       	rcall	.+18     	; 0x868 <__divmodhi4_neg2>
 856:	0e 94 38 04 	call	0x870	; 0x870 <__udivmodhi4>
 85a:	07 fc       	sbrc	r0, 7
 85c:	05 d0       	rcall	.+10     	; 0x868 <__divmodhi4_neg2>
 85e:	3e f4       	brtc	.+14     	; 0x86e <__divmodhi4_exit>

00000860 <__divmodhi4_neg1>:
 860:	90 95       	com	r25
 862:	81 95       	neg	r24
 864:	9f 4f       	sbci	r25, 0xFF	; 255
 866:	08 95       	ret

00000868 <__divmodhi4_neg2>:
 868:	70 95       	com	r23
 86a:	61 95       	neg	r22
 86c:	7f 4f       	sbci	r23, 0xFF	; 255

0000086e <__divmodhi4_exit>:
 86e:	08 95       	ret

00000870 <__udivmodhi4>:
 870:	aa 1b       	sub	r26, r26
 872:	bb 1b       	sub	r27, r27
 874:	51 e1       	ldi	r21, 0x11	; 17
 876:	07 c0       	rjmp	.+14     	; 0x886 <__udivmodhi4_ep>

00000878 <__udivmodhi4_loop>:
 878:	aa 1f       	adc	r26, r26
 87a:	bb 1f       	adc	r27, r27
 87c:	a6 17       	cp	r26, r22
 87e:	b7 07       	cpc	r27, r23
 880:	10 f0       	brcs	.+4      	; 0x886 <__udivmodhi4_ep>
 882:	a6 1b       	sub	r26, r22
 884:	b7 0b       	sbc	r27, r23

00000886 <__udivmodhi4_ep>:
 886:	88 1f       	adc	r24, r24
 888:	99 1f       	adc	r25, r25
 88a:	5a 95       	dec	r21
 88c:	a9 f7       	brne	.-22     	; 0x878 <__udivmodhi4_loop>
 88e:	80 95       	com	r24
 890:	90 95       	com	r25
 892:	bc 01       	movw	r22, r24
 894:	cd 01       	movw	r24, r26
 896:	08 95       	ret

00000898 <do_rand>:
 898:	8f 92       	push	r8
 89a:	9f 92       	push	r9
 89c:	af 92       	push	r10
 89e:	bf 92       	push	r11
 8a0:	cf 92       	push	r12
 8a2:	df 92       	push	r13
 8a4:	ef 92       	push	r14
 8a6:	ff 92       	push	r15
 8a8:	cf 93       	push	r28
 8aa:	df 93       	push	r29
 8ac:	ec 01       	movw	r28, r24
 8ae:	68 81       	ld	r22, Y
 8b0:	79 81       	ldd	r23, Y+1	; 0x01
 8b2:	8a 81       	ldd	r24, Y+2	; 0x02
 8b4:	9b 81       	ldd	r25, Y+3	; 0x03
 8b6:	61 15       	cp	r22, r1
 8b8:	71 05       	cpc	r23, r1
 8ba:	81 05       	cpc	r24, r1
 8bc:	91 05       	cpc	r25, r1
 8be:	21 f4       	brne	.+8      	; 0x8c8 <do_rand+0x30>
 8c0:	64 e2       	ldi	r22, 0x24	; 36
 8c2:	79 ed       	ldi	r23, 0xD9	; 217
 8c4:	8b e5       	ldi	r24, 0x5B	; 91
 8c6:	97 e0       	ldi	r25, 0x07	; 7
 8c8:	2d e1       	ldi	r18, 0x1D	; 29
 8ca:	33 ef       	ldi	r19, 0xF3	; 243
 8cc:	41 e0       	ldi	r20, 0x01	; 1
 8ce:	50 e0       	ldi	r21, 0x00	; 0
 8d0:	0e 94 a8 04 	call	0x950	; 0x950 <__divmodsi4>
 8d4:	49 01       	movw	r8, r18
 8d6:	5a 01       	movw	r10, r20
 8d8:	9b 01       	movw	r18, r22
 8da:	ac 01       	movw	r20, r24
 8dc:	a7 ea       	ldi	r26, 0xA7	; 167
 8de:	b1 e4       	ldi	r27, 0x41	; 65
 8e0:	0e 94 c7 04 	call	0x98e	; 0x98e <__muluhisi3>
 8e4:	6b 01       	movw	r12, r22
 8e6:	7c 01       	movw	r14, r24
 8e8:	ac ee       	ldi	r26, 0xEC	; 236
 8ea:	b4 ef       	ldi	r27, 0xF4	; 244
 8ec:	a5 01       	movw	r20, r10
 8ee:	94 01       	movw	r18, r8
 8f0:	0e 94 d5 04 	call	0x9aa	; 0x9aa <__mulohisi3>
 8f4:	dc 01       	movw	r26, r24
 8f6:	cb 01       	movw	r24, r22
 8f8:	8c 0d       	add	r24, r12
 8fa:	9d 1d       	adc	r25, r13
 8fc:	ae 1d       	adc	r26, r14
 8fe:	bf 1d       	adc	r27, r15
 900:	b7 ff       	sbrs	r27, 7
 902:	03 c0       	rjmp	.+6      	; 0x90a <do_rand+0x72>
 904:	01 97       	sbiw	r24, 0x01	; 1
 906:	a1 09       	sbc	r26, r1
 908:	b0 48       	sbci	r27, 0x80	; 128
 90a:	88 83       	st	Y, r24
 90c:	99 83       	std	Y+1, r25	; 0x01
 90e:	aa 83       	std	Y+2, r26	; 0x02
 910:	bb 83       	std	Y+3, r27	; 0x03
 912:	9f 77       	andi	r25, 0x7F	; 127
 914:	df 91       	pop	r29
 916:	cf 91       	pop	r28
 918:	ff 90       	pop	r15
 91a:	ef 90       	pop	r14
 91c:	df 90       	pop	r13
 91e:	cf 90       	pop	r12
 920:	bf 90       	pop	r11
 922:	af 90       	pop	r10
 924:	9f 90       	pop	r9
 926:	8f 90       	pop	r8
 928:	08 95       	ret

0000092a <rand_r>:
 92a:	0e 94 4c 04 	call	0x898	; 0x898 <do_rand>
 92e:	08 95       	ret

00000930 <rand>:
 930:	80 e6       	ldi	r24, 0x60	; 96
 932:	90 e0       	ldi	r25, 0x00	; 0
 934:	0e 94 4c 04 	call	0x898	; 0x898 <do_rand>
 938:	08 95       	ret

0000093a <srand>:
 93a:	a0 e0       	ldi	r26, 0x00	; 0
 93c:	b0 e0       	ldi	r27, 0x00	; 0
 93e:	80 93 60 00 	sts	0x0060, r24	; 0x800060 <__DATA_REGION_ORIGIN__>
 942:	90 93 61 00 	sts	0x0061, r25	; 0x800061 <__DATA_REGION_ORIGIN__+0x1>
 946:	a0 93 62 00 	sts	0x0062, r26	; 0x800062 <__DATA_REGION_ORIGIN__+0x2>
 94a:	b0 93 63 00 	sts	0x0063, r27	; 0x800063 <__DATA_REGION_ORIGIN__+0x3>
 94e:	08 95       	ret

00000950 <__divmodsi4>:
 950:	05 2e       	mov	r0, r21
 952:	97 fb       	bst	r25, 7
 954:	1e f4       	brtc	.+6      	; 0x95c <__divmodsi4+0xc>
 956:	00 94       	com	r0
 958:	0e 94 bf 04 	call	0x97e	; 0x97e <__negsi2>
 95c:	57 fd       	sbrc	r21, 7
 95e:	07 d0       	rcall	.+14     	; 0x96e <__divmodsi4_neg2>
 960:	0e 94 da 04 	call	0x9b4	; 0x9b4 <__udivmodsi4>
 964:	07 fc       	sbrc	r0, 7
 966:	03 d0       	rcall	.+6      	; 0x96e <__divmodsi4_neg2>
 968:	4e f4       	brtc	.+18     	; 0x97c <__divmodsi4_exit>
 96a:	0c 94 bf 04 	jmp	0x97e	; 0x97e <__negsi2>

0000096e <__divmodsi4_neg2>:
 96e:	50 95       	com	r21
 970:	40 95       	com	r20
 972:	30 95       	com	r19
 974:	21 95       	neg	r18
 976:	3f 4f       	sbci	r19, 0xFF	; 255
 978:	4f 4f       	sbci	r20, 0xFF	; 255
 97a:	5f 4f       	sbci	r21, 0xFF	; 255

0000097c <__divmodsi4_exit>:
 97c:	08 95       	ret

0000097e <__negsi2>:
 97e:	90 95       	com	r25
 980:	80 95       	com	r24
 982:	70 95       	com	r23
 984:	61 95       	neg	r22
 986:	7f 4f       	sbci	r23, 0xFF	; 255
 988:	8f 4f       	sbci	r24, 0xFF	; 255
 98a:	9f 4f       	sbci	r25, 0xFF	; 255
 98c:	08 95       	ret

0000098e <__muluhisi3>:
 98e:	0e 94 fc 04 	call	0x9f8	; 0x9f8 <__umulhisi3>
 992:	a5 9f       	mul	r26, r21
 994:	90 0d       	add	r25, r0
 996:	b4 9f       	mul	r27, r20
 998:	90 0d       	add	r25, r0
 99a:	a4 9f       	mul	r26, r20
 99c:	80 0d       	add	r24, r0
 99e:	91 1d       	adc	r25, r1
 9a0:	11 24       	eor	r1, r1
 9a2:	08 95       	ret

000009a4 <__mulshisi3>:
 9a4:	b7 ff       	sbrs	r27, 7
 9a6:	0c 94 c7 04 	jmp	0x98e	; 0x98e <__muluhisi3>

000009aa <__mulohisi3>:
 9aa:	0e 94 c7 04 	call	0x98e	; 0x98e <__muluhisi3>
 9ae:	82 1b       	sub	r24, r18
 9b0:	93 0b       	sbc	r25, r19
 9b2:	08 95       	ret

000009b4 <__udivmodsi4>:
 9b4:	a1 e2       	ldi	r26, 0x21	; 33
 9b6:	1a 2e       	mov	r1, r26
 9b8:	aa 1b       	sub	r26, r26
 9ba:	bb 1b       	sub	r27, r27
 9bc:	fd 01       	movw	r30, r26
 9be:	0d c0       	rjmp	.+26     	; 0x9da <__udivmodsi4_ep>

000009c0 <__udivmodsi4_loop>:
 9c0:	aa 1f       	adc	r26, r26
 9c2:	bb 1f       	adc	r27, r27
 9c4:	ee 1f       	adc	r30, r30
 9c6:	ff 1f       	adc	r31, r31
 9c8:	a2 17       	cp	r26, r18
 9ca:	b3 07       	cpc	r27, r19
 9cc:	e4 07       	cpc	r30, r20
 9ce:	f5 07       	cpc	r31, r21
 9d0:	20 f0       	brcs	.+8      	; 0x9da <__udivmodsi4_ep>
 9d2:	a2 1b       	sub	r26, r18
 9d4:	b3 0b       	sbc	r27, r19
 9d6:	e4 0b       	sbc	r30, r20
 9d8:	f5 0b       	sbc	r31, r21

000009da <__udivmodsi4_ep>:
 9da:	66 1f       	adc	r22, r22
 9dc:	77 1f       	adc	r23, r23
 9de:	88 1f       	adc	r24, r24
 9e0:	99 1f       	adc	r25, r25
 9e2:	1a 94       	dec	r1
 9e4:	69 f7       	brne	.-38     	; 0x9c0 <__udivmodsi4_loop>
 9e6:	60 95       	com	r22
 9e8:	70 95       	com	r23
 9ea:	80 95       	com	r24
 9ec:	90 95       	com	r25
 9ee:	9b 01       	movw	r18, r22
 9f0:	ac 01       	movw	r20, r24
 9f2:	bd 01       	movw	r22, r26
 9f4:	cf 01       	movw	r24, r30
 9f6:	08 95       	ret

000009f8 <__umulhisi3>:
 9f8:	a2 9f       	mul	r26, r18
 9fa:	b0 01       	movw	r22, r0
 9fc:	b3 9f       	mul	r27, r19
 9fe:	c0 01       	movw	r24, r0
 a00:	a3 9f       	mul	r26, r19
 a02:	70 0d       	add	r23, r0
 a04:	81 1d       	adc	r24, r1
 a06:	11 24       	eor	r1, r1
 a08:	91 1d       	adc	r25, r1
 a0a:	b2 9f       	mul	r27, r18
 a0c:	70 0d       	add	r23, r0
 a0e:	81 1d       	adc	r24, r1
 a10:	11 24       	eor	r1, r1
 a12:	91 1d       	adc	r25, r1
 a14:	08 95       	ret

00000a16 <_exit>:
 a16:	f8 94       	cli

00000a18 <__stop_program>:
 a18:	ff cf       	rjmp	.-2      	; 0xa18 <__stop_program>
